; Function Attrs: mustprogress nofree norecurse nosync nounwind willreturn memory(read, inaccessiblemem: none) uwtable
define hidden noundef zeroext i1 @_ZNK3sat3big6in_delENS_7literalES1_(ptr nocapture noundef nonnull readonly align 8 dereferenceable(80) %this, i32 %u.coerce, i32 %v.coerce) local_unnamed_addr #8 align 2 {
entry:
  %spec.select = tail call i32 @llvm.umin.i32(i32 %u.coerce, i32 %v.coerce)
  %spec.select5 = tail call i32 @llvm.umax.i32(i32 %u.coerce, i32 %v.coerce)
  %m_del_bin = getelementptr inbounds i8, ptr %this, i64 72
  %0 = load ptr, ptr %m_del_bin, align 8
  %idxprom.i = zext i32 %spec.select to i64
  %arrayidx.i = getelementptr inbounds %class.svector.3, ptr %0, i64 %idxprom.i
  %1 = load ptr, ptr %arrayidx.i, align 8
  %cmp.i.i.i = icmp eq ptr %1, null
  br i1 %cmp.i.i.i, label %_ZNK6vectorIN3sat7literalELb0EjE8containsERKS1_.exit, label %_ZNK6vectorIN3sat7literalELb0EjE3endEv.exit.i

_ZNK6vectorIN3sat7literalELb0EjE3endEv.exit.i:    ; preds = %entry
  %arrayidx.i.i.i = getelementptr inbounds i8, ptr %1, i64 -4
  %2 = load i32, ptr %arrayidx.i.i.i, align 4
  %3 = zext i32 %2 to i64
  %add.ptr.i.i = getelementptr inbounds %"class.sat::literal", ptr %1, i64 %3
  %cmp.not3.not.i = icmp eq i32 %2, 0
  br i1 %cmp.not3.not.i, label %_ZNK6vectorIN3sat7literalELb0EjE8containsERKS1_.exit, label %for.body.i

for.body.i:                                       ; preds = %_ZNK6vectorIN3sat7literalELb0EjE3endEv.exit.i, %for.body.i
  %it.04.i = phi ptr [ %incdec.ptr.i, %for.body.i ], [ %1, %_ZNK6vectorIN3sat7literalELb0EjE3endEv.exit.i ]
  %4 = load i32, ptr %it.04.i, align 4
  %cmp.i.i = icmp eq i32 %4, %spec.select5
  %incdec.ptr.i = getelementptr inbounds i8, ptr %it.04.i, i64 4
  %cmp.not.not.i = icmp eq ptr %incdec.ptr.i, %add.ptr.i.i
  %or.cond = select i1 %cmp.i.i, i1 true, i1 %cmp.not.not.i
  br i1 %or.cond, label %_ZNK6vectorIN3sat7literalELb0EjE8containsERKS1_.exit, label %for.body.i, !llvm.loop !23

_ZNK6vectorIN3sat7literalELb0EjE8containsERKS1_.exit: ; preds = %for.body.i, %entry, %_ZNK6vectorIN3sat7literalELb0EjE3endEv.exit.i
  %cmp.not.lcssa.i = phi i1 [ false, %_ZNK6vectorIN3sat7literalELb0EjE3endEv.exit.i ], [ false, %entry ], [ %cmp.i.i, %for.body.i ]
  ret i1 %cmp.not.lcssa.i
}